target datalayout = "e-m:e-p270:32:32-p271:32:32-p272:64:64-i64:64-i128:128-f80:128-n8:16:32:64-S128"
target triple = "x86_64-pc-linux-gnu"

%struct._lv_draw_task_t = type { ptr, i32, %struct.lv_area_t, %struct.lv_area_t, %struct.lv_area_t, %struct.lv_area_t, ptr, ptr, i32, ptr, i8, i8 }
%struct.lv_area_t = type { i32, i32, i32, i32 }

; Function Attrs: nounwind uwtable
define i32 @lv_draw_get_dependent_count(ptr noundef %0) #0 {
  %2 = alloca i32, align 4
  %3 = alloca ptr, align 8
  %4 = alloca i32, align 4
  %5 = alloca ptr, align 8
  store ptr %0, ptr %3, align 8, !tbaa !42
  %6 = load ptr, ptr %3, align 8, !tbaa !42
  %7 = icmp eq ptr %6, null
  br i1 %7, label %8, label %9

8:                                                ; preds = %1
  store i32 0, ptr %2, align 4
  br label %47

9:                                                ; preds = %1
  %10 = load ptr, ptr %3, align 8, !tbaa !42
  %11 = getelementptr inbounds nuw %struct._lv_draw_task_t, ptr %10, i32 0, i32 0
  %12 = load ptr, ptr %11, align 8, !tbaa !53
  %13 = icmp eq ptr %12, null
  br i1 %13, label %14, label %15

14:                                               ; preds = %9
  store i32 0, ptr %2, align 4
  br label %47

15:                                               ; preds = %9
  call void @llvm.lifetime.start.p0(i64 4, ptr %4) #5
  store i32 0, ptr %4, align 4, !tbaa !45
  call void @llvm.lifetime.start.p0(i64 8, ptr %5) #5
  %16 = load ptr, ptr %3, align 8, !tbaa !42
  %17 = getelementptr inbounds nuw %struct._lv_draw_task_t, ptr %16, i32 0, i32 0
  %18 = load ptr, ptr %17, align 8, !tbaa !53
  store ptr %18, ptr %5, align 8, !tbaa !42
  br label %19

19:                                               ; preds = %41, %15
  %20 = load ptr, ptr %5, align 8, !tbaa !42
  %21 = icmp ne ptr %20, null
  br i1 %21, label %22, label %45

22:                                               ; preds = %19
  %23 = load ptr, ptr %5, align 8, !tbaa !42
  %24 = getelementptr inbounds nuw %struct._lv_draw_task_t, ptr %23, i32 0, i32 8
  %25 = load volatile i32, ptr %24, align 8, !tbaa !49
  %26 = icmp eq i32 %25, 1
  br i1 %26, label %32, label %27

27:                                               ; preds = %22
  %28 = load ptr, ptr %5, align 8, !tbaa !42
  %29 = getelementptr inbounds nuw %struct._lv_draw_task_t, ptr %28, i32 0, i32 8
  %30 = load volatile i32, ptr %29, align 8, !tbaa !49
  %31 = icmp eq i32 %30, 0
  br i1 %31, label %32, label %41

32:                                               ; preds = %27, %22
  %33 = load ptr, ptr %3, align 8, !tbaa !42
  %34 = getelementptr inbounds nuw %struct._lv_draw_task_t, ptr %33, i32 0, i32 2
  %35 = load ptr, ptr %5, align 8, !tbaa !42
  %36 = getelementptr inbounds nuw %struct._lv_draw_task_t, ptr %35, i32 0, i32 2
  %37 = call zeroext i1 @lv_area_is_on(ptr noundef %34, ptr noundef %36)
  br i1 %37, label %38, label %41

38:                                               ; preds = %32
  %39 = load i32, ptr %4, align 4, !tbaa !45
  %40 = add i32 %39, 1
  store i32 %40, ptr %4, align 4, !tbaa !45
  br label %41

41:                                               ; preds = %38, %32, %27
  %42 = load ptr, ptr %5, align 8, !tbaa !42
  %43 = getelementptr inbounds nuw %struct._lv_draw_task_t, ptr %42, i32 0, i32 0
  %44 = load ptr, ptr %43, align 8, !tbaa !53
  store ptr %44, ptr %5, align 8, !tbaa !42
  br label %19, !llvm.loop !114

45:                                               ; preds = %19
  %46 = load i32, ptr %4, align 4, !tbaa !45
  store i32 %46, ptr %2, align 4
  call void @llvm.lifetime.end.p0(i64 8, ptr %5) #5
  call void @llvm.lifetime.end.p0(i64 4, ptr %4) #5
  br label %47

47:                                               ; preds = %45, %14, %8
  %48 = load i32, ptr %2, align 4
  ret i32 %48
}