; Function Attrs: nounwind uwtable
define i32 @lv_draw_get_dependent_count(ptr noundef %0) local_unnamed_addr #1 {
  %2 = icmp eq ptr %0, null
  br i1 %2, label %.loopexit, label %3

3:                                                ; preds = %1
  %4 = load ptr, ptr %0, align 8, !tbaa !48
  %5 = icmp eq ptr %4, null
  br i1 %5, label %.loopexit, label %.preheader

.preheader:                                       ; preds = %3
  %6 = getelementptr inbounds nuw i8, ptr %0, i64 12
  br label %7

7:                                                ; preds = %.preheader, %18
  %.016 = phi ptr [ %4, %.preheader ], [ %19, %18 ]
  %.01115 = phi i32 [ 0, %.preheader ], [ %.1, %18 ]
  %8 = getelementptr inbounds nuw i8, ptr %.016, i64 96
  %9 = load volatile i32, ptr %8, align 8, !tbaa !44
  %10 = icmp eq i32 %9, 1
  br i1 %10, label %14, label %11

11:                                               ; preds = %7
  %12 = load volatile i32, ptr %8, align 8, !tbaa !44
  %13 = icmp eq i32 %12, 0
  br i1 %13, label %14, label %18

14:                                               ; preds = %11, %7
  %15 = getelementptr inbounds nuw i8, ptr %.016, i64 12
  %16 = tail call zeroext i1 @lv_area_is_on(ptr noundef nonnull %6, ptr noundef nonnull %15) #11
  %17 = zext i1 %16 to i32
  %spec.select = add i32 %.01115, %17
  br label %18

18:                                               ; preds = %14, %11
  %.1 = phi i32 [ %.01115, %11 ], [ %spec.select, %14 ]
  %19 = load ptr, ptr %.016, align 8, !tbaa !48
  %.not = icmp eq ptr %19, null
  br i1 %.not, label %.loopexit, label %7, !llvm.loop !106

.loopexit:                                        ; preds = %18, %3, %1
  %.012 = phi i32 [ 0, %1 ], [ 0, %3 ], [ %.1, %18 ]
  ret i32 %.012
}